; ModuleID = '43/1085.c'
source_filename = "43/1085.c"
target datalayout = "e-m:e-p270:32:32-p271:32:32-p272:64:64-i64:64-f80:128-n8:16:32:64-S128"
target triple = "x86_64-pc-linux-gnu"

@.str = private unnamed_addr constant [3 x i8] c"%d\00", align 1
@.str.1 = private unnamed_addr constant [7 x i8] c"%d %d\0A\00", align 1

; Function Attrs: noinline nounwind uwtable
define dso_local i32 @main() #0 {
  %1 = alloca i32, align 4
  %2 = alloca i32, align 4
  %3 = alloca i32, align 4
  %4 = alloca i32, align 4
  %5 = alloca i32, align 4
  %6 = alloca i32, align 4
  %7 = alloca i32, align 4
  store i32 0, i32* %1, align 4
  %8 = call i32 (i8*, ...) @__isoc99_scanf(i8* getelementptr inbounds ([3 x i8], [3 x i8]* @.str, i64 0, i64 0), i32* %2)
  store i32 3, i32* %3, align 4
  br label %9

9:                                                ; preds = %62, %0
  %10 = load i32, i32* %3, align 4
  %11 = load i32, i32* %2, align 4
  %12 = sdiv i32 %11, 2
  %13 = icmp sle i32 %10, %12
  br i1 %13, label %14, label %65

14:                                               ; preds = %9
  %15 = load i32, i32* %3, align 4
  store i32 %15, i32* %5, align 4
  store i32 2, i32* %4, align 4
  br label %16

16:                                               ; preds = %28, %14
  %17 = load i32, i32* %4, align 4
  %18 = load i32, i32* %5, align 4
  %19 = icmp slt i32 %17, %18
  br i1 %19, label %20, label %31

20:                                               ; preds = %16
  %21 = load i32, i32* %5, align 4
  %22 = load i32, i32* %4, align 4
  %23 = srem i32 %21, %22
  store i32 %23, i32* %6, align 4
  %24 = load i32, i32* %6, align 4
  %25 = icmp eq i32 %24, 0
  br i1 %25, label %26, label %27

26:                                               ; preds = %20
  br label %31

27:                                               ; preds = %20
  br label %28

28:                                               ; preds = %27
  %29 = load i32, i32* %4, align 4
  %30 = add nsw i32 %29, 1
  store i32 %30, i32* %4, align 4
  br label %16

31:                                               ; preds = %26, %16
  %32 = load i32, i32* %6, align 4
  %33 = icmp eq i32 %32, 0
  br i1 %33, label %34, label %35

34:                                               ; preds = %31
  br label %62

35:                                               ; preds = %31
  %36 = load i32, i32* %2, align 4
  %37 = load i32, i32* %5, align 4
  %38 = sub nsw i32 %36, %37
  store i32 %38, i32* %7, align 4
  store i32 2, i32* %4, align 4
  br label %39

39:                                               ; preds = %51, %35
  %40 = load i32, i32* %4, align 4
  %41 = load i32, i32* %7, align 4
  %42 = icmp slt i32 %40, %41
  br i1 %42, label %43, label %54

43:                                               ; preds = %39
  %44 = load i32, i32* %7, align 4
  %45 = load i32, i32* %4, align 4
  %46 = srem i32 %44, %45
  store i32 %46, i32* %6, align 4
  %47 = load i32, i32* %6, align 4
  %48 = icmp eq i32 %47, 0
  br i1 %48, label %49, label %50

49:                                               ; preds = %43
  br label %54

50:                                               ; preds = %43
  br label %51

51:                                               ; preds = %50
  %52 = load i32, i32* %4, align 4
  %53 = add nsw i32 %52, 1
  store i32 %53, i32* %4, align 4
  br label %39

54:                                               ; preds = %49, %39
  %55 = load i32, i32* %6, align 4
  %56 = icmp ne i32 %55, 0
  br i1 %56, label %57, label %61

57:                                               ; preds = %54
  %58 = load i32, i32* %5, align 4
  %59 = load i32, i32* %7, align 4
  %60 = call i32 (i8*, ...) @printf(i8* getelementptr inbounds ([7 x i8], [7 x i8]* @.str.1, i64 0, i64 0), i32 %58, i32 %59)
  br label %61

61:                                               ; preds = %57, %54
  br label %62

62:                                               ; preds = %61, %34
  %63 = load i32, i32* %3, align 4
  %64 = add nsw i32 %63, 2
  store i32 %64, i32* %3, align 4
  br label %9

65:                                               ; preds = %9
  ret i32 0
}

declare dso_local i32 @__isoc99_scanf(i8*, ...) #1

declare dso_local i32 @printf(i8*, ...) #1


!llvm.module.flags = !{!0}
!llvm.ident = !{!1}

!0 = !{i32 1, !"wchar_size", i32 4}
!1 = !{!"clang version 10.0.0-4ubuntu1 "}
